target datalayout = "e-m:e-p270:32:32-p271:32:32-p272:64:64-i64:64-i128:128-f80:128-n8:16:32:64-S128"
target triple = "x86_64-pc-linux-gnu"

; Function Attrs: mustprogress nounwind uwtable
define noundef ptr @_Z8wcsupperPw(ptr noundef %0) #1 {
  %2 = alloca ptr, align 8
  %3 = alloca ptr, align 8
  store ptr %0, ptr %2, align 8
  %4 = load ptr, ptr %2, align 8
  store ptr %4, ptr %3, align 8
  br label %5

5:                                                ; preds = %14, %1
  %6 = load ptr, ptr %3, align 8
  %7 = load i32, ptr %6, align 4
  %8 = icmp ne i32 %7, 0
  br i1 %8, label %9, label %17

9:                                                ; preds = %5
  %10 = load ptr, ptr %3, align 8
  %11 = load i32, ptr %10, align 4
  %12 = call i32 @towupper(i32 noundef %11) #6
  %13 = load ptr, ptr %3, align 8
  store i32 %12, ptr %13, align 4
  br label %14

14:                                               ; preds = %9
  %15 = load ptr, ptr %3, align 8
  %16 = getelementptr inbounds i32, ptr %15, i32 1
  store ptr %16, ptr %3, align 8
  br label %5, !llvm.loop !20

17:                                               ; preds = %5
  %18 = load ptr, ptr %2, align 8
  ret ptr %18
}